; Function Attrs: nofree norecurse nosync nounwind memory(argmem: readwrite) uwtable
define hidden range(i32 -1, 2) i32 @EVP_DecodeFinal(ptr noundef captures(none) %0, ptr noundef writeonly captures(none) %1, ptr noundef writeonly captures(none) initializes((0, 4)) %2) local_unnamed_addr #1 {
  %4 = alloca i64, align 8
  store i32 0, ptr %2, align 4, !tbaa !13
  %5 = load i32, ptr %0, align 4, !tbaa !11
  %.not = icmp eq i32 %5, 0
  br i1 %.not, label %47, label %6

6:                                                ; preds = %3
  %7 = getelementptr inbounds nuw i8, ptr %0, i64 8
  %8 = zext i32 %5 to i64
  call void @llvm.lifetime.start.p0(i64 8, ptr nonnull %4) #4
  %9 = load i8, ptr %7, align 1, !tbaa !14
  %10 = icmp slt i8 %9, 0
  br i1 %10, label %.preheader24.i, label %conv_ascii2bin.exit.i

conv_ascii2bin.exit.i:                            ; preds = %6, %18
  %11 = phi i8 [ %21, %18 ], [ %9, %6 ]
  %.0.i14 = phi i64 [ %20, %18 ], [ %8, %6 ]
  %.014.i13 = phi ptr [ %19, %18 ], [ %7, %6 ]
  %12 = icmp eq i8 %11, 9
  %13 = icmp eq i8 %11, 32
  %14 = or i1 %12, %13
  %15 = icmp ne i64 %.0.i14, 0
  %16 = select i1 %14, i1 %15, i1 false
  br i1 %16, label %18, label %.preheader24.i

.preheader24.i:                                   ; preds = %18, %conv_ascii2bin.exit.i, %6
  %.014.i.lcssa = phi ptr [ %7, %6 ], [ %.014.i13, %conv_ascii2bin.exit.i ], [ %19, %18 ]
  %.0.i.lcssa = phi i64 [ %8, %6 ], [ %.0.i14, %conv_ascii2bin.exit.i ], [ %20, %18 ]
  %invariant.gep.i = getelementptr i8, ptr %.014.i.lcssa, i64 -1
  %17 = icmp ugt i64 %.0.i.lcssa, 3
  br i1 %17, label %.lr.ph.i, label %.critedge.i

18:                                               ; preds = %conv_ascii2bin.exit.i
  %19 = getelementptr inbounds nuw i8, ptr %.014.i13, i64 1
  %20 = add nsw i64 %.0.i14, -1
  %21 = load i8, ptr %19, align 1, !tbaa !14
  %22 = icmp slt i8 %21, 0
  br i1 %22, label %.preheader24.i, label %conv_ascii2bin.exit.i, !llvm.loop !22

.lr.ph.i:                                         ; preds = %.preheader24.i, %30
  %.125.i = phi i64 [ %31, %30 ], [ %.0.i.lcssa, %.preheader24.i ]
  %gep.i = getelementptr i8, ptr %invariant.gep.i, i64 %.125.i
  %23 = load i8, ptr %gep.i, align 1, !tbaa !14
  %24 = icmp slt i8 %23, 0
  br i1 %24, label %.critedge.i, label %conv_ascii2bin.exit19.i

conv_ascii2bin.exit19.i:                          ; preds = %.lr.ph.i
  %25 = zext nneg i8 %23 to i64
  %26 = getelementptr inbounds nuw [128 x i8], ptr @data_ascii2bin, i64 0, i64 %25
  %27 = load i8, ptr %26, align 1, !tbaa !14
  %28 = and i8 %27, -20
  %29 = icmp eq i8 %28, -32
  br i1 %29, label %30, label %.critedge.i

30:                                               ; preds = %conv_ascii2bin.exit19.i
  %31 = add i64 %.125.i, -1
  %32 = icmp ugt i64 %31, 3
  br i1 %32, label %.lr.ph.i, label %EVP_DecodeBlock.exit.thread, !llvm.loop !23

.critedge.i:                                      ; preds = %conv_ascii2bin.exit19.i, %.lr.ph.i, %.preheader24.i
  %.1.lcssa.i = phi i64 [ %.0.i.lcssa, %.preheader24.i ], [ %.125.i, %.lr.ph.i ], [ %.125.i, %conv_ascii2bin.exit19.i ]
  %33 = and i64 %.1.lcssa.i, 3
  %.not.i.i = icmp eq i64 %33, 0
  br i1 %.not.i.i, label %EVP_DecodedLength.exit.i, label %EVP_DecodeBlock.exit.thread

EVP_DecodedLength.exit.i:                         ; preds = %.critedge.i
  %34 = lshr exact i64 %.1.lcssa.i, 2
  %35 = mul nuw i64 %34, 3
  store i64 %35, ptr %4, align 8, !tbaa !18
  %36 = icmp ugt i64 %.1.lcssa.i, 2863311528
  br i1 %36, label %EVP_DecodeBlock.exit.thread, label %37

37:                                               ; preds = %EVP_DecodedLength.exit.i
  %38 = call i32 @EVP_DecodeBase64(ptr noundef %1, ptr noundef nonnull %4, i64 noundef %35, ptr noundef nonnull %.014.i.lcssa, i64 noundef %.1.lcssa.i)
  %.not.i = icmp eq i32 %38, 0
  br i1 %.not.i, label %EVP_DecodeBlock.exit.thread, label %.preheader.i

.preheader.i:                                     ; preds = %37
  %.promoted.i = load i64, ptr %4, align 8, !tbaa !18
  %39 = urem i64 %.promoted.i, 3
  %.not1730.i = icmp eq i64 %39, 0
  br i1 %.not1730.i, label %EVP_DecodeBlock.exit, label %.lr.ph31.i

.lr.ph31.i:                                       ; preds = %.preheader.i, %.lr.ph31.i
  %40 = phi i64 [ %41, %.lr.ph31.i ], [ %.promoted.i, %.preheader.i ]
  %41 = add i64 %40, 1
  %42 = getelementptr inbounds nuw i8, ptr %1, i64 %40
  store i8 0, ptr %42, align 1, !tbaa !14
  %43 = urem i64 %41, 3
  %.not17.i = icmp eq i64 %43, 0
  br i1 %.not17.i, label %EVP_DecodeBlock.exit, label %.lr.ph31.i, !llvm.loop !24

EVP_DecodeBlock.exit.thread:                      ; preds = %30, %EVP_DecodedLength.exit.i, %37, %.critedge.i
  call void @llvm.lifetime.end.p0(i64 8, ptr nonnull %4) #4
  br label %47

EVP_DecodeBlock.exit:                             ; preds = %.lr.ph31.i, %.preheader.i
  %.lcssa29.i = phi i64 [ %.promoted.i, %.preheader.i ], [ %41, %.lr.ph31.i ]
  %44 = trunc i64 %.lcssa29.i to i32
  call void @llvm.lifetime.end.p0(i64 8, ptr nonnull %4) #4
  %45 = icmp slt i32 %44, 0
  br i1 %45, label %47, label %46

46:                                               ; preds = %EVP_DecodeBlock.exit
  store i32 0, ptr %0, align 4, !tbaa !11
  store i32 %44, ptr %2, align 4, !tbaa !13
  br label %47

47:                                               ; preds = %EVP_DecodeBlock.exit.thread, %3, %EVP_DecodeBlock.exit, %46
  %.0 = phi i32 [ 1, %46 ], [ -1, %EVP_DecodeBlock.exit ], [ 1, %3 ], [ -1, %EVP_DecodeBlock.exit.thread ]
  ret i32 %.0
}